; Function Attrs: nounwind uwtable
define ptr @crtmgr_block_list_lookup(ptr nocapture noundef readonly %0, ptr nocapture noundef readonly %1) local_unnamed_addr #0 {
  %.020 = load ptr, ptr %0, align 8
  %.not21 = icmp eq ptr %.020, null
  br i1 %.not21, label %._crit_edge, label %.lr.ph

.lr.ph:                                           ; preds = %2
  %3 = getelementptr inbounds i8, ptr %1, i64 200
  %4 = getelementptr inbounds i8, ptr %1, i64 328
  %5 = getelementptr inbounds i8, ptr %1, i64 240
  br label %6

6:                                                ; preds = %.lr.ph, %21
  %.022 = phi ptr [ %.020, %.lr.ph ], [ %.0, %21 ]
  %7 = getelementptr inbounds i8, ptr %.022, i64 384
  %8 = load i32, ptr %7, align 8
  %.not14 = icmp eq i32 %8, 0
  br i1 %.not14, label %21, label %9

9:                                                ; preds = %6
  %10 = getelementptr inbounds i8, ptr %.022, i64 200
  %bcmp = tail call i32 @bcmp(ptr noundef nonnull dereferenceable(20) %10, ptr noundef nonnull dereferenceable(20) %3, i64 20)
  %.not15 = icmp eq i32 %bcmp, 0
  br i1 %.not15, label %11, label %21

11:                                               ; preds = %9
  %12 = load ptr, ptr %4, align 8
  %13 = getelementptr inbounds i8, ptr %.022, i64 328
  %14 = load ptr, ptr %13, align 8
  %15 = tail call i32 @BN_cmp(ptr noundef %12, ptr noundef %14) #10
  %.not16 = icmp eq i32 %15, 0
  br i1 %.not16, label %16, label %21

16:                                               ; preds = %11
  %17 = getelementptr inbounds i8, ptr %.022, i64 260
  %18 = load i32, ptr %17, align 4
  %.not17 = icmp eq i32 %18, 0
  br i1 %.not17, label %19, label %._crit_edge

19:                                               ; preds = %16
  %20 = getelementptr inbounds i8, ptr %.022, i64 240
  %bcmp18 = tail call i32 @bcmp(ptr noundef nonnull dereferenceable(20) %20, ptr noundef nonnull dereferenceable(20) %5, i64 20)
  %.not19 = icmp eq i32 %bcmp18, 0
  br i1 %.not19, label %._crit_edge, label %21

21:                                               ; preds = %19, %6, %9, %11
  %22 = getelementptr inbounds i8, ptr %.022, i64 400
  %.0 = load ptr, ptr %22, align 8
  %.not = icmp eq ptr %.0, null
  br i1 %.not, label %._crit_edge, label %6

._crit_edge:                                      ; preds = %19, %16, %21, %2
  %.0.lcssa = phi ptr [ null, %2 ], [ null, %21 ], [ %.022, %16 ], [ %.022, %19 ]
  ret ptr %.0.lcssa
}